; Function Attrs: mustprogress uwtable
define void @_ZN6google8protobuf2io26CopyingOutputStreamAdaptor22AllocateBufferIfNeededEv(ptr nocapture noundef nonnull align 8 dereferenceable(48) %this) local_unnamed_addr #5 align 2 {
entry:
  %buffer_ = getelementptr inbounds i8, ptr %this, i64 32
  %0 = load ptr, ptr %buffer_, align 8
  %cmp.i.not.i = icmp eq ptr %0, null
  br i1 %cmp.i.not.i, label %_ZNSt10unique_ptrIA_hSt14default_deleteIS0_EE5resetIPhvEEvT_.exit, label %if.end

_ZNSt10unique_ptrIA_hSt14default_deleteIS0_EE5resetIPhvEEvT_.exit: ; preds = %entry
  %buffer_size_ = getelementptr inbounds i8, ptr %this, i64 40
  %1 = load i32, ptr %buffer_size_, align 8
  %conv = sext i32 %1 to i64
  %call3 = tail call noalias noundef nonnull ptr @_Znam(i64 noundef %conv) #29
  store ptr %call3, ptr %buffer_, align 8
  br label %if.end

if.end:                                           ; preds = %_ZNSt10unique_ptrIA_hSt14default_deleteIS0_EE5resetIPhvEEvT_.exit, %entry
  ret void
}